target datalayout = "e-m:e-p270:32:32-p271:32:32-p272:64:64-i64:64-i128:128-f80:128-n8:16:32:64-S128"
target triple = "x86_64-pc-linux-gnu"

%struct.archive_entry = type { ptr, ptr, i32, %struct.aest, i32, %struct.archive_mstring, i64, i64, %struct.archive_mstring, %struct.archive_mstring, %struct.archive_mstring, %struct.archive_mstring, %struct.archive_mstring, i8, ptr, i64, %struct.ae_digest, %struct.archive_acl, ptr, ptr, ptr, ptr, ptr, [12 x i8], i32 }
%struct.aest = type { i64, i32, i64, i32, i64, i32, i64, i32, i64, i64, i32, i64, i64, i32, i64, i64, i64, i32, i64, i64, i64 }
%struct.archive_mstring = type { %struct.archive_string, %struct.archive_string, %struct.archive_wstring, %struct.archive_string, i32 }
%struct.archive_wstring = type { ptr, i64, i64 }
%struct.archive_string = type { ptr, i64, i64 }
%struct.ae_digest = type { [16 x i8], [20 x i8], [20 x i8], [32 x i8], [48 x i8], [64 x i8] }
%struct.archive_acl = type { i32, ptr, ptr, i32, ptr, ptr, i32 }

; Function Attrs: nounwind uwtable
define dso_local void @archive_entry_copy_mac_metadata(ptr noundef %0, ptr noundef %1, i64 noundef %2) #0 {
  %4 = alloca ptr, align 8
  %5 = alloca ptr, align 8
  %6 = alloca i64, align 8
  store ptr %0, ptr %4, align 8, !tbaa !4
  store ptr %1, ptr %5, align 8, !tbaa !26
  store i64 %2, ptr %6, align 8, !tbaa !27
  %7 = load ptr, ptr %4, align 8, !tbaa !4
  %8 = getelementptr inbounds nuw %struct.archive_entry, ptr %7, i32 0, i32 14
  %9 = load ptr, ptr %8, align 8, !tbaa !28
  call void @free(ptr noundef %9) #13
  %10 = load ptr, ptr %5, align 8, !tbaa !26
  %11 = icmp eq ptr %10, null
  br i1 %11, label %15, label %12

12:                                               ; preds = %3
  %13 = load i64, ptr %6, align 8, !tbaa !27
  %14 = icmp eq i64 %13, 0
  br i1 %14, label %15, label %20

15:                                               ; preds = %12, %3
  %16 = load ptr, ptr %4, align 8, !tbaa !4
  %17 = getelementptr inbounds nuw %struct.archive_entry, ptr %16, i32 0, i32 14
  store ptr null, ptr %17, align 8, !tbaa !28
  %18 = load ptr, ptr %4, align 8, !tbaa !4
  %19 = getelementptr inbounds nuw %struct.archive_entry, ptr %18, i32 0, i32 15
  store i64 0, ptr %19, align 8, !tbaa !29
  br label %39

20:                                               ; preds = %12
  %21 = load i64, ptr %6, align 8, !tbaa !27
  %22 = load ptr, ptr %4, align 8, !tbaa !4
  %23 = getelementptr inbounds nuw %struct.archive_entry, ptr %22, i32 0, i32 15
  store i64 %21, ptr %23, align 8, !tbaa !29
  %24 = load i64, ptr %6, align 8, !tbaa !27
  %25 = call noalias ptr @malloc(i64 noundef %24) #14
  %26 = load ptr, ptr %4, align 8, !tbaa !4
  %27 = getelementptr inbounds nuw %struct.archive_entry, ptr %26, i32 0, i32 14
  store ptr %25, ptr %27, align 8, !tbaa !28
  %28 = load ptr, ptr %4, align 8, !tbaa !4
  %29 = getelementptr inbounds nuw %struct.archive_entry, ptr %28, i32 0, i32 14
  %30 = load ptr, ptr %29, align 8, !tbaa !28
  %31 = icmp eq ptr %30, null
  br i1 %31, label %32, label %33

32:                                               ; preds = %20
  call void @abort() #15
  unreachable

33:                                               ; preds = %20
  %34 = load ptr, ptr %4, align 8, !tbaa !4
  %35 = getelementptr inbounds nuw %struct.archive_entry, ptr %34, i32 0, i32 14
  %36 = load ptr, ptr %35, align 8, !tbaa !28
  %37 = load ptr, ptr %5, align 8, !tbaa !26
  %38 = load i64, ptr %6, align 8, !tbaa !27
  call void @llvm.memcpy.p0.p0.i64(ptr align 1 %36, ptr align 1 %37, i64 %38, i1 false)
  br label %39

39:                                               ; preds = %33, %15
  ret void
}

; Function Attrs: nounwind uwtable
define dso_local ptr @archive_entry_clear(ptr noundef %0) #0 {
  %2 = alloca ptr, align 8
  %3 = alloca ptr, align 8
  store ptr %0, ptr %3, align 8, !tbaa !4
  %4 = load ptr, ptr %3, align 8, !tbaa !4
  %5 = icmp eq ptr %4, null
  br i1 %5, label %6, label %7

6:                                                ; preds = %1
  store ptr null, ptr %2, align 8
  br label %32

7:                                                ; preds = %1
  %8 = load ptr, ptr %3, align 8, !tbaa !4
  %9 = getelementptr inbounds nuw %struct.archive_entry, ptr %8, i32 0, i32 5
  call void @archive_mstring_clean(ptr noundef %9)
  %10 = load ptr, ptr %3, align 8, !tbaa !4
  %11 = getelementptr inbounds nuw %struct.archive_entry, ptr %10, i32 0, i32 8
  call void @archive_mstring_clean(ptr noundef %11)
  %12 = load ptr, ptr %3, align 8, !tbaa !4
  %13 = getelementptr inbounds nuw %struct.archive_entry, ptr %12, i32 0, i32 9
  call void @archive_mstring_clean(ptr noundef %13)
  %14 = load ptr, ptr %3, align 8, !tbaa !4
  %15 = getelementptr inbounds nuw %struct.archive_entry, ptr %14, i32 0, i32 10
  call void @archive_mstring_clean(ptr noundef %15)
  %16 = load ptr, ptr %3, align 8, !tbaa !4
  %17 = getelementptr inbounds nuw %struct.archive_entry, ptr %16, i32 0, i32 12
  call void @archive_mstring_clean(ptr noundef %17)
  %18 = load ptr, ptr %3, align 8, !tbaa !4
  %19 = getelementptr inbounds nuw %struct.archive_entry, ptr %18, i32 0, i32 11
  call void @archive_mstring_clean(ptr noundef %19)
  %20 = load ptr, ptr %3, align 8, !tbaa !4
  call void @archive_entry_copy_mac_metadata(ptr noundef %20, ptr noundef null, i64 noundef 0)
  %21 = load ptr, ptr %3, align 8, !tbaa !4
  %22 = getelementptr inbounds nuw %struct.archive_entry, ptr %21, i32 0, i32 17
  call void @archive_acl_clear(ptr noundef %22)
  %23 = load ptr, ptr %3, align 8, !tbaa !4
  call void @archive_entry_xattr_clear(ptr noundef %23)
  %24 = load ptr, ptr %3, align 8, !tbaa !4
  call void @archive_entry_sparse_clear(ptr noundef %24)
  %25 = load ptr, ptr %3, align 8, !tbaa !4
  %26 = getelementptr inbounds nuw %struct.archive_entry, ptr %25, i32 0, i32 1
  %27 = load ptr, ptr %26, align 8, !tbaa !9
  call void @free(ptr noundef %27) #13
  %28 = load ptr, ptr %3, align 8, !tbaa !4
  %29 = getelementptr inbounds nuw %struct.archive_entry, ptr %28, i32 0, i32 24
  store i32 0, ptr %29, align 4, !tbaa !25
  %30 = load ptr, ptr %3, align 8, !tbaa !4
  call void @llvm.memset.p0.i64(ptr align 8 %30, i8 0, i64 1176, i1 false)
  %31 = load ptr, ptr %3, align 8, !tbaa !4
  store ptr %31, ptr %2, align 8
  br label %32

32:                                               ; preds = %7, %6
  %33 = load ptr, ptr %2, align 8
  ret ptr %33
}