; Function Attrs: nounwind uwtable
define dso_local noundef ptr @archive_entry_clear(ptr noundef returned %0) local_unnamed_addr #0 {
  %2 = icmp eq ptr %0, null
  br i1 %2, label %15, label %3

3:                                                ; preds = %1
  %4 = getelementptr inbounds nuw i8, ptr %0, i64 200
  tail call void @archive_mstring_clean(ptr noundef nonnull %4) #21
  %5 = getelementptr inbounds nuw i8, ptr %0, i64 320
  tail call void @archive_mstring_clean(ptr noundef nonnull %5) #21
  %6 = getelementptr inbounds nuw i8, ptr %0, i64 424
  tail call void @archive_mstring_clean(ptr noundef nonnull %6) #21
  %7 = getelementptr inbounds nuw i8, ptr %0, i64 528
  tail call void @archive_mstring_clean(ptr noundef nonnull %7) #21
  %8 = getelementptr inbounds nuw i8, ptr %0, i64 736
  tail call void @archive_mstring_clean(ptr noundef nonnull %8) #21
  %9 = getelementptr inbounds nuw i8, ptr %0, i64 632
  tail call void @archive_mstring_clean(ptr noundef nonnull %9) #21
  %10 = getelementptr inbounds nuw i8, ptr %0, i64 848
  %11 = load ptr, ptr %10, align 8, !tbaa !4
  tail call void @free(ptr noundef %11) #21
  tail call void @llvm.memset.p0.i64(ptr noundef nonnull align 8 dereferenceable(16) %10, i8 0, i64 16, i1 false)
  %12 = getelementptr inbounds nuw i8, ptr %0, i64 1064
  tail call void @archive_acl_clear(ptr noundef nonnull %12) #21
  tail call void @archive_entry_xattr_clear(ptr noundef nonnull %0) #21
  tail call void @archive_entry_sparse_clear(ptr noundef nonnull %0) #21
  %13 = getelementptr inbounds nuw i8, ptr %0, i64 8
  %14 = load ptr, ptr %13, align 8, !tbaa !23
  tail call void @free(ptr noundef %14) #21
  tail call void @llvm.memset.p0.i64(ptr noundef nonnull align 8 dereferenceable(1176) %0, i8 0, i64 1176, i1 false)
  br label %15

15:                                               ; preds = %1, %3
  ret ptr %0
}